target datalayout = "e-m:e-p270:32:32-p271:32:32-p272:64:64-i64:64-i128:128-f80:128-n8:16:32:64-S128"
target triple = "x86_64-pc-linux-gnu"

%struct.evp_cipher_ctx_st = type { ptr, ptr, i32, i32, [16 x i8], [16 x i8], [32 x i8], i32, ptr, i32, i32, i64, ptr, i32, i32, [32 x i8], i64, ptr, ptr }
%struct.evp_cipher_st = type { i32, i32, i32, i32, i64, i32, ptr, ptr, ptr, i32, ptr, ptr, ptr, ptr, i32, ptr, ptr, ptr, %struct.CRYPTO_REF_COUNT, ptr, ptr, ptr, ptr, ptr, ptr, ptr, ptr, ptr, ptr, ptr, ptr, ptr, ptr, ptr, ptr, ptr, ptr, ptr, ptr }
%struct.CRYPTO_REF_COUNT = type { i32 }

@.str.3 = private unnamed_addr constant [7 x i8] c"keylen\00", align 1
@.str.6 = private unnamed_addr constant [6 x i8] c"ivlen\00", align 1

; Function Attrs: nounwind uwtable
define i32 @EVP_CIPHER_CTX_set_params(ptr noundef %0, ptr noundef %1) #0 {
  %3 = alloca ptr, align 8
  %4 = alloca ptr, align 8
  %5 = alloca i32, align 4
  %6 = alloca ptr, align 8
  store ptr %0, ptr %3, align 8, !tbaa !3
  store ptr %1, ptr %4, align 8, !tbaa !34
  call void @llvm.lifetime.start.p0(i64 4, ptr %5) #9
  store i32 0, ptr %5, align 4, !tbaa !29
  call void @llvm.lifetime.start.p0(i64 8, ptr %6) #9
  %7 = load ptr, ptr %3, align 8, !tbaa !3
  %8 = getelementptr inbounds nuw %struct.evp_cipher_ctx_st, ptr %7, i32 0, i32 0
  %9 = load ptr, ptr %8, align 8, !tbaa !8
  %10 = icmp ne ptr %9, null
  br i1 %10, label %11, label %65

11:                                               ; preds = %2
  %12 = load ptr, ptr %3, align 8, !tbaa !3
  %13 = getelementptr inbounds nuw %struct.evp_cipher_ctx_st, ptr %12, i32 0, i32 0
  %14 = load ptr, ptr %13, align 8, !tbaa !8
  %15 = getelementptr inbounds nuw %struct.evp_cipher_st, ptr %14, i32 0, i32 33
  %16 = load ptr, ptr %15, align 8, !tbaa !90
  %17 = icmp ne ptr %16, null
  br i1 %17, label %18, label %65

18:                                               ; preds = %11
  %19 = load ptr, ptr %3, align 8, !tbaa !3
  %20 = getelementptr inbounds nuw %struct.evp_cipher_ctx_st, ptr %19, i32 0, i32 0
  %21 = load ptr, ptr %20, align 8, !tbaa !8
  %22 = getelementptr inbounds nuw %struct.evp_cipher_st, ptr %21, i32 0, i32 33
  %23 = load ptr, ptr %22, align 8, !tbaa !90
  %24 = load ptr, ptr %3, align 8, !tbaa !3
  %25 = getelementptr inbounds nuw %struct.evp_cipher_ctx_st, ptr %24, i32 0, i32 17
  %26 = load ptr, ptr %25, align 8, !tbaa !19
  %27 = load ptr, ptr %4, align 8, !tbaa !34
  %28 = call i32 %23(ptr noundef %26, ptr noundef %27)
  store i32 %28, ptr %5, align 4, !tbaa !29
  %29 = load i32, ptr %5, align 4, !tbaa !29
  %30 = icmp sgt i32 %29, 0
  br i1 %30, label %31, label %46

31:                                               ; preds = %18
  %32 = load ptr, ptr %4, align 8, !tbaa !34
  %33 = call ptr @OSSL_PARAM_locate_const(ptr noundef %32, ptr noundef @.str.3)
  store ptr %33, ptr %6, align 8, !tbaa !34
  %34 = load ptr, ptr %6, align 8, !tbaa !34
  %35 = icmp ne ptr %34, null
  br i1 %35, label %36, label %45

36:                                               ; preds = %31
  %37 = load ptr, ptr %6, align 8, !tbaa !34
  %38 = load ptr, ptr %3, align 8, !tbaa !3
  %39 = getelementptr inbounds nuw %struct.evp_cipher_ctx_st, ptr %38, i32 0, i32 9
  %40 = call i32 @OSSL_PARAM_get_int(ptr noundef %37, ptr noundef %39)
  %41 = icmp ne i32 %40, 0
  br i1 %41, label %45, label %42

42:                                               ; preds = %36
  store i32 0, ptr %5, align 4, !tbaa !29
  %43 = load ptr, ptr %3, align 8, !tbaa !3
  %44 = getelementptr inbounds nuw %struct.evp_cipher_ctx_st, ptr %43, i32 0, i32 9
  store i32 -1, ptr %44, align 8, !tbaa !53
  br label %45

45:                                               ; preds = %42, %36, %31
  br label %46

46:                                               ; preds = %45, %18
  %47 = load i32, ptr %5, align 4, !tbaa !29
  %48 = icmp sgt i32 %47, 0
  br i1 %48, label %49, label %64

49:                                               ; preds = %46
  %50 = load ptr, ptr %4, align 8, !tbaa !34
  %51 = call ptr @OSSL_PARAM_locate_const(ptr noundef %50, ptr noundef @.str.6)
  store ptr %51, ptr %6, align 8, !tbaa !34
  %52 = load ptr, ptr %6, align 8, !tbaa !34
  %53 = icmp ne ptr %52, null
  br i1 %53, label %54, label %63

54:                                               ; preds = %49
  %55 = load ptr, ptr %6, align 8, !tbaa !34
  %56 = load ptr, ptr %3, align 8, !tbaa !3
  %57 = getelementptr inbounds nuw %struct.evp_cipher_ctx_st, ptr %56, i32 0, i32 10
  %58 = call i32 @OSSL_PARAM_get_int(ptr noundef %55, ptr noundef %57)
  %59 = icmp ne i32 %58, 0
  br i1 %59, label %63, label %60

60:                                               ; preds = %54
  store i32 0, ptr %5, align 4, !tbaa !29
  %61 = load ptr, ptr %3, align 8, !tbaa !3
  %62 = getelementptr inbounds nuw %struct.evp_cipher_ctx_st, ptr %61, i32 0, i32 10
  store i32 -1, ptr %62, align 4, !tbaa !22
  br label %63

63:                                               ; preds = %60, %54, %49
  br label %64

64:                                               ; preds = %63, %46
  br label %65

65:                                               ; preds = %64, %11, %2
  %66 = load i32, ptr %5, align 4, !tbaa !29
  call void @llvm.lifetime.end.p0(i64 8, ptr %6) #9
  call void @llvm.lifetime.end.p0(i64 4, ptr %5) #9
  ret i32 %66
}