; Function Attrs: nounwind uwtable
define i32 @EVP_CIPHER_CTX_set_params(ptr noundef %0, ptr noundef %1) local_unnamed_addr #0 {
  %3 = load ptr, ptr %0, align 8, !tbaa !3
  %.not = icmp eq ptr %3, null
  br i1 %.not, label %24, label %4

4:                                                ; preds = %2
  %5 = getelementptr inbounds nuw i8, ptr %3, i64 248
  %6 = load ptr, ptr %5, align 8, !tbaa !50
  %.not23 = icmp eq ptr %6, null
  br i1 %.not23, label %24, label %7

7:                                                ; preds = %4
  %8 = getelementptr inbounds nuw i8, ptr %0, i64 176
  %9 = load ptr, ptr %8, align 8, !tbaa !17
  %10 = tail call i32 %6(ptr noundef %9, ptr noundef %1) #10
  %11 = icmp sgt i32 %10, 0
  br i1 %11, label %12, label %24

12:                                               ; preds = %7
  %13 = tail call ptr @OSSL_PARAM_locate_const(ptr noundef %1, ptr noundef nonnull @.str.3) #10
  %.not24 = icmp eq ptr %13, null
  br i1 %.not24, label %18, label %14

14:                                               ; preds = %12
  %15 = getelementptr inbounds nuw i8, ptr %0, i64 104
  %16 = tail call i32 @OSSL_PARAM_get_int(ptr noundef nonnull %13, ptr noundef nonnull %15) #10
  %.not25 = icmp eq i32 %16, 0
  br i1 %.not25, label %17, label %18

17:                                               ; preds = %14
  store i32 -1, ptr %15, align 8, !tbaa !51
  br label %24

18:                                               ; preds = %14, %12
  %19 = tail call ptr @OSSL_PARAM_locate_const(ptr noundef %1, ptr noundef nonnull @.str.6) #10
  %.not26 = icmp eq ptr %19, null
  br i1 %.not26, label %24, label %20

20:                                               ; preds = %18
  %21 = getelementptr inbounds nuw i8, ptr %0, i64 108
  %22 = tail call i32 @OSSL_PARAM_get_int(ptr noundef nonnull %19, ptr noundef nonnull %21) #10
  %.not27 = icmp eq i32 %22, 0
  br i1 %.not27, label %23, label %24

23:                                               ; preds = %20
  store i32 -1, ptr %21, align 4, !tbaa !26
  br label %24

24:                                               ; preds = %7, %17, %23, %20, %18, %4, %2
  %.0 = phi i32 [ %10, %20 ], [ 0, %23 ], [ %10, %18 ], [ 0, %4 ], [ 0, %2 ], [ 0, %17 ], [ %10, %7 ]
  ret i32 %.0
}